Archive member included because of file (symbol)

../../../../../..//binary/armv7a/gcc/am335x/drivers/Release/libdrivers.a(dcan.o)
                              Release/dcanTxRx.o (DCANInitModeSet)
../../../../../..//binary/armv7a/gcc/utils/Release/libutils.a(consoleUtils.o)
                              Release/dcanTxRx.o (ConsoleUtilsInit)
../../../../../..//binary/armv7a/gcc/utils/Release/libutils.a(uartStdio.o)
                              ../../../../../..//binary/armv7a/gcc/utils/Release/libutils.a(consoleUtils.o) (UARTStdioInit)
../../../../../..//binary/armv7a/gcc/utils/Release/libutils.a(ascii.o)
                              ../../../../../..//binary/armv7a/gcc/utils/Release/libutils.a(uartStdio.o) (ASCIIToDigit)
../../../../../..//binary/armv7a/gcc/am335x/ok335xd/platform/Release/libplatform.a(dcan.o)
                              Release/dcanTxRx.o (DCANPinMuxSetUp)
../../../../../..//binary/armv7a/gcc/am335x/ok335xd/platform/Release/libplatform.a(uartConsole.o)
                              ../../../../../..//binary/armv7a/gcc/utils/Release/libutils.a(uartStdio.o) (UARTConsoleInit)
../../../../../..//binary/armv7a/gcc/am335x/ok335xd/platform/Release/libplatform.a(uart.o)
                              ../../../../../..//binary/armv7a/gcc/am335x/ok335xd/platform/Release/libplatform.a(uartConsole.o) (UARTPinMuxSetup)
../../../../../..//binary/armv7a/gcc/am335x/system_config/Release/libsystem_config.a(init.o)
                              (Entry)
../../../../../..//binary/armv7a/gcc/am335x/system_config/Release/libsystem_config.a(interrupt.o)
                              Release/dcanTxRx.o (IntRegister)
../../../../../..//binary/armv7a/gcc/am335x/system_config/Release/libsystem_config.a(startup.o)
                              ../../../../../..//binary/armv7a/gcc/am335x/system_config/Release/libsystem_config.a(init.o) (start_boot)
../../../../../..//binary/armv7a/gcc/am335x/system_config/Release/libsystem_config.a(cp15.o)
                              ../../../../../..//binary/armv7a/gcc/am335x/system_config/Release/libsystem_config.a(startup.o) (CP15VectorBaseAddrSet)
../../../../../..//binary/armv7a/gcc/am335x/system_config/Release/libsystem_config.a(cpu.o)
                              ../../../../../..//binary/armv7a/gcc/am335x/system_config/Release/libsystem_config.a(interrupt.o) (CPUIntStatus)
../../../../../..//binary/armv7a/gcc/am335x/system_config/Release/libsystem_config.a(exceptionhandler.o)
                              ../../../../../..//binary/armv7a/gcc/am335x/system_config/Release/libsystem_config.a(startup.o) (IRQHandler)
/opt/gcc-arm-none-eabi-4_7-2013q1/lib/gcc/arm-none-eabi/4.7.3//libgcc.a(_udivsi3.o)
                              (__aeabi_uidiv)
/opt/gcc-arm-none-eabi-4_7-2013q1/lib/gcc/arm-none-eabi/4.7.3//libgcc.a(_divsi3.o)
                              (__aeabi_idiv)
/opt/gcc-arm-none-eabi-4_7-2013q1/lib/gcc/arm-none-eabi/4.7.3//libgcc.a(_dvmd_tls.o)
                              /opt/gcc-arm-none-eabi-4_7-2013q1/lib/gcc/arm-none-eabi/4.7.3//libgcc.a(_udivsi3.o) (__aeabi_idiv0)
../../../../../..//binary/armv7a/gcc/am335x/drivers/Release/libdrivers.a(uart_irda_cir.o)
                              ../../../../../..//binary/armv7a/gcc/am335x/ok335xd/platform/Release/libplatform.a(uartConsole.o) (UARTOperatingModeSelect)

Allocating common symbols
Common symbol       size              file

entry               0x10              Release/dcanTxRx.o
fnRAMVectors        0x200             ../../../../../..//binary/armv7a/gcc/am335x/system_config/Release/libsystem_config.a(interrupt.o)

Discarded input sections

 .text          0x00000000        0x0 Release/dcan_frame.o
 .data          0x00000000        0x0 Release/dcan_frame.o
 .bss           0x00000000        0x0 Release/dcan_frame.o
 .text.CANValidateMsgObject
                0x00000000       0x40 Release/dcan_frame.o
 .text.CANUpdateDataBytes
                0x00000000       0x40 Release/dcan_frame.o
 .text          0x00000000        0x0 Release/dcanTxRx.o
 .data          0x00000000        0x0 Release/dcanTxRx.o
 .bss           0x00000000        0x0 Release/dcanTxRx.o
 .text          0x00000000        0x0 ../../../../../..//binary/armv7a/gcc/am335x/drivers/Release/libdrivers.a(dcan.o)
 .data          0x00000000        0x0 ../../../../../..//binary/armv7a/gcc/am335x/drivers/Release/libdrivers.a(dcan.o)
 .bss           0x00000000        0x0 ../../../../../..//binary/armv7a/gcc/am335x/drivers/Release/libdrivers.a(dcan.o)
 .text.DCANIntDisable
                0x00000000       0x14 ../../../../../..//binary/armv7a/gcc/am335x/drivers/Release/libdrivers.a(dcan.o)
 .text.DCANAutoReTransmitControl
                0x00000000       0x20 ../../../../../..//binary/armv7a/gcc/am335x/drivers/Release/libdrivers.a(dcan.o)
 .text.DCANTestModeControl
                0x00000000       0x20 ../../../../../..//binary/armv7a/gcc/am335x/drivers/Release/libdrivers.a(dcan.o)
 .text.DCANParityControl
                0x00000000       0x20 ../../../../../..//binary/armv7a/gcc/am335x/drivers/Release/libdrivers.a(dcan.o)
 .text.DCANIntLineDisable
                0x00000000       0x1c ../../../../../..//binary/armv7a/gcc/am335x/drivers/Release/libdrivers.a(dcan.o)
 .text.DCANDmaRequestLineEnable
                0x00000000       0x14 ../../../../../..//binary/armv7a/gcc/am335x/drivers/Release/libdrivers.a(dcan.o)
 .text.DCANDmaRequestLineDisable
                0x00000000       0x14 ../../../../../..//binary/armv7a/gcc/am335x/drivers/Release/libdrivers.a(dcan.o)
 .text.DCANErrCntrRegStatusGet
                0x00000000        0xc ../../../../../..//binary/armv7a/gcc/am335x/drivers/Release/libdrivers.a(dcan.o)
 .text.DCANTestModesEnable
                0x00000000       0x14 ../../../../../..//binary/armv7a/gcc/am335x/drivers/Release/libdrivers.a(dcan.o)
 .text.DCANTestModesDisable
                0x00000000       0x14 ../../../../../..//binary/armv7a/gcc/am335x/drivers/Release/libdrivers.a(dcan.o)
 .text.DCANTxPinControl
                0x00000000       0x20 ../../../../../..//binary/armv7a/gcc/am335x/drivers/Release/libdrivers.a(dcan.o)
 .text.DCANParityEndOfIntSet
                0x00000000       0x10 ../../../../../..//binary/armv7a/gcc/am335x/drivers/Release/libdrivers.a(dcan.o)
 .text.DCANRxPinStatusGet
                0x00000000        0xc ../../../../../..//binary/armv7a/gcc/am335x/drivers/Release/libdrivers.a(dcan.o)
 .text.DCANAutoBusOnTimeValSet
                0x00000000        0x8 ../../../../../..//binary/armv7a/gcc/am335x/drivers/Release/libdrivers.a(dcan.o)
 .text.DCANAutoBusOnTimeValGet
                0x00000000        0x8 ../../../../../..//binary/armv7a/gcc/am335x/drivers/Release/libdrivers.a(dcan.o)
 .text.DCANTxRqstXStatusGet
                0x00000000        0xc ../../../../../..//binary/armv7a/gcc/am335x/drivers/Release/libdrivers.a(dcan.o)
 .text.DCANTxRqstStatusGet
                0x00000000       0x20 ../../../../../..//binary/armv7a/gcc/am335x/drivers/Release/libdrivers.a(dcan.o)
 .text.DCANNewDataXStatusGet
                0x00000000        0xc ../../../../../..//binary/armv7a/gcc/am335x/drivers/Release/libdrivers.a(dcan.o)
 .text.DCANNewDataStatusGet
                0x00000000       0x20 ../../../../../..//binary/armv7a/gcc/am335x/drivers/Release/libdrivers.a(dcan.o)
 .text.DCANNewDataStatGet
                0x00000000       0x3c ../../../../../..//binary/armv7a/gcc/am335x/drivers/Release/libdrivers.a(dcan.o)
 .text.DCANIntPendingXStatusGet
                0x00000000        0xc ../../../../../..//binary/armv7a/gcc/am335x/drivers/Release/libdrivers.a(dcan.o)
 .text.DCANIntPendingStatusGet
                0x00000000       0x20 ../../../../../..//binary/armv7a/gcc/am335x/drivers/Release/libdrivers.a(dcan.o)
 .text.DCANMsgValidXStatusGet
                0x00000000        0xc ../../../../../..//binary/armv7a/gcc/am335x/drivers/Release/libdrivers.a(dcan.o)
 .text.DCANIntMuxConfig
                0x00000000       0x50 ../../../../../..//binary/armv7a/gcc/am335x/drivers/Release/libdrivers.a(dcan.o)
 .text.DCANIFBusyStatusGet
                0x00000000       0x10 ../../../../../..//binary/armv7a/gcc/am335x/drivers/Release/libdrivers.a(dcan.o)
 .text.DCANIF3RegUpdateEnableSet
                0x00000000       0x24 ../../../../../..//binary/armv7a/gcc/am335x/drivers/Release/libdrivers.a(dcan.o)
 .text.DCANIF3ObservationFlagSet
                0x00000000       0x14 ../../../../../..//binary/armv7a/gcc/am335x/drivers/Release/libdrivers.a(dcan.o)
 .text.DCANIF3ObservationFlagClear
                0x00000000       0x14 ../../../../../..//binary/armv7a/gcc/am335x/drivers/Release/libdrivers.a(dcan.o)
 .text.DCANIF3ObservationFlagStatGet
                0x00000000        0x8 ../../../../../..//binary/armv7a/gcc/am335x/drivers/Release/libdrivers.a(dcan.o)
 .text.DCANIFMaskStatusGet
                0x00000000       0x10 ../../../../../..//binary/armv7a/gcc/am335x/drivers/Release/libdrivers.a(dcan.o)
 .text.DCANIFArbStatusGet
                0x00000000       0x10 ../../../../../..//binary/armv7a/gcc/am335x/drivers/Release/libdrivers.a(dcan.o)
 .text.DCANTransmitRequestControl
                0x00000000       0x28 ../../../../../..//binary/armv7a/gcc/am335x/drivers/Release/libdrivers.a(dcan.o)
 .text          0x00000000        0x0 ../../../../../..//binary/armv7a/gcc/utils/Release/libutils.a(consoleUtils.o)
 .data          0x00000000        0x0 ../../../../../..//binary/armv7a/gcc/utils/Release/libutils.a(consoleUtils.o)
 .bss           0x00000000        0x0 ../../../../../..//binary/armv7a/gcc/utils/Release/libutils.a(consoleUtils.o)
 .text.ConsoleUtilsPuts
                0x00000000       0x30 ../../../../../..//binary/armv7a/gcc/utils/Release/libutils.a(consoleUtils.o)
 .text.ConsoleUtilsGetChar
                0x00000000       0x70 ../../../../../..//binary/armv7a/gcc/utils/Release/libutils.a(consoleUtils.o)
 .text          0x00000000        0x0 ../../../../../..//binary/armv7a/gcc/utils/Release/libutils.a(uartStdio.o)
 .data          0x00000000        0x0 ../../../../../..//binary/armv7a/gcc/utils/Release/libutils.a(uartStdio.o)
 .bss           0x00000000        0x0 ../../../../../..//binary/armv7a/gcc/utils/Release/libutils.a(uartStdio.o)
 .text.UARTPutNum
                0x00000000       0xb0 ../../../../../..//binary/armv7a/gcc/utils/Release/libutils.a(uartStdio.o)
 .text.UARTPutHexNum
                0x00000000       0xa0 ../../../../../..//binary/armv7a/gcc/utils/Release/libutils.a(uartStdio.o)
 .text.UARTGetNum
                0x00000000       0x68 ../../../../../..//binary/armv7a/gcc/utils/Release/libutils.a(uartStdio.o)
 .text.UARTGetHexNum
                0x00000000      0x164 ../../../../../..//binary/armv7a/gcc/utils/Release/libutils.a(uartStdio.o)
 .text.UARTGetc
                0x00000000       0x14 ../../../../../..//binary/armv7a/gcc/utils/Release/libutils.a(uartStdio.o)
 .text.UARTprintf
                0x00000000      0x4c8 ../../../../../..//binary/armv7a/gcc/utils/Release/libutils.a(uartStdio.o)
 .text          0x00000000        0x0 ../../../../../..//binary/armv7a/gcc/utils/Release/libutils.a(ascii.o)
 .data          0x00000000        0x0 ../../../../../..//binary/armv7a/gcc/utils/Release/libutils.a(ascii.o)
 .bss           0x00000000        0x0 ../../../../../..//binary/armv7a/gcc/utils/Release/libutils.a(ascii.o)
 .text.DigitToASCII
                0x00000000       0x38 ../../../../../..//binary/armv7a/gcc/utils/Release/libutils.a(ascii.o)
 .text.StrToEthrAddr
                0x00000000       0x80 ../../../../../..//binary/armv7a/gcc/utils/Release/libutils.a(ascii.o)
 .text.EthrAddrToStr
                0x00000000       0x84 ../../../../../..//binary/armv7a/gcc/utils/Release/libutils.a(ascii.o)
 .text.TimeToStr
                0x00000000       0x98 ../../../../../..//binary/armv7a/gcc/utils/Release/libutils.a(ascii.o)
 .text.DateToStr
                0x00000000       0x98 ../../../../../..//binary/armv7a/gcc/utils/Release/libutils.a(ascii.o)
 .text          0x00000000        0x0 ../../../../../..//binary/armv7a/gcc/am335x/ok335xd/platform/Release/libplatform.a(dcan.o)
 .data          0x00000000        0x0 ../../../../../..//binary/armv7a/gcc/am335x/ok335xd/platform/Release/libplatform.a(dcan.o)
 .bss           0x00000000        0x0 ../../../../../..//binary/armv7a/gcc/am335x/ok335xd/platform/Release/libplatform.a(dcan.o)
 .text          0x00000000        0x0 ../../../../../..//binary/armv7a/gcc/am335x/ok335xd/platform/Release/libplatform.a(uartConsole.o)
 .data          0x00000000        0x0 ../../../../../..//binary/armv7a/gcc/am335x/ok335xd/platform/Release/libplatform.a(uartConsole.o)
 .bss           0x00000000        0x0 ../../../../../..//binary/armv7a/gcc/am335x/ok335xd/platform/Release/libplatform.a(uartConsole.o)
 .text          0x00000000        0x0 ../../../../../..//binary/armv7a/gcc/am335x/ok335xd/platform/Release/libplatform.a(uart.o)
 .data          0x00000000        0x0 ../../../../../..//binary/armv7a/gcc/am335x/ok335xd/platform/Release/libplatform.a(uart.o)
 .bss           0x00000000        0x0 ../../../../../..//binary/armv7a/gcc/am335x/ok335xd/platform/Release/libplatform.a(uart.o)
 .data          0x00000000        0x0 ../../../../../..//binary/armv7a/gcc/am335x/system_config/Release/libsystem_config.a(init.o)
 .bss           0x00000000        0x0 ../../../../../..//binary/armv7a/gcc/am335x/system_config/Release/libsystem_config.a(init.o)
 .text          0x00000000        0x0 ../../../../../..//binary/armv7a/gcc/am335x/system_config/Release/libsystem_config.a(interrupt.o)
 .data          0x00000000        0x0 ../../../../../..//binary/armv7a/gcc/am335x/system_config/Release/libsystem_config.a(interrupt.o)
 .bss           0x00000000        0x0 ../../../../../..//binary/armv7a/gcc/am335x/system_config/Release/libsystem_config.a(interrupt.o)
 .text.IntUnRegister
                0x00000000       0x18 ../../../../../..//binary/armv7a/gcc/am335x/system_config/Release/libsystem_config.a(interrupt.o)
 .text.IntSystemDisable
                0x00000000       0x24 ../../../../../..//binary/armv7a/gcc/am335x/system_config/Release/libsystem_config.a(interrupt.o)
 .text.IntIfClkFreeRunSet
                0x00000000       0x18 ../../../../../..//binary/armv7a/gcc/am335x/system_config/Release/libsystem_config.a(interrupt.o)
 .text.IntIfClkAutoGateSet
                0x00000000       0x18 ../../../../../..//binary/armv7a/gcc/am335x/system_config/Release/libsystem_config.a(interrupt.o)
 .text.IntActiveIrqNumGet
                0x00000000       0x14 ../../../../../..//binary/armv7a/gcc/am335x/system_config/Release/libsystem_config.a(interrupt.o)
 .text.IntSpurIrqFlagGet
                0x00000000       0x14 ../../../../../..//binary/armv7a/gcc/am335x/system_config/Release/libsystem_config.a(interrupt.o)
 .text.IntProtectionEnable
                0x00000000       0x14 ../../../../../..//binary/armv7a/gcc/am335x/system_config/Release/libsystem_config.a(interrupt.o)
 .text.IntProtectionDisable
                0x00000000       0x18 ../../../../../..//binary/armv7a/gcc/am335x/system_config/Release/libsystem_config.a(interrupt.o)
 .text.IntSyncClkFreeRunSet
                0x00000000       0x18 ../../../../../..//binary/armv7a/gcc/am335x/system_config/Release/libsystem_config.a(interrupt.o)
 .text.IntSyncClkAutoGateSet
                0x00000000       0x18 ../../../../../..//binary/armv7a/gcc/am335x/system_config/Release/libsystem_config.a(interrupt.o)
 .text.IntFuncClkFreeRunSet
                0x00000000       0x18 ../../../../../..//binary/armv7a/gcc/am335x/system_config/Release/libsystem_config.a(interrupt.o)
 .text.IntFuncClkAutoGateSet
                0x00000000       0x18 ../../../../../..//binary/armv7a/gcc/am335x/system_config/Release/libsystem_config.a(interrupt.o)
 .text.IntCurrIrqPriorityGet
                0x00000000       0x14 ../../../../../..//binary/armv7a/gcc/am335x/system_config/Release/libsystem_config.a(interrupt.o)
 .text.IntPriorityThresholdGet
                0x00000000       0x14 ../../../../../..//binary/armv7a/gcc/am335x/system_config/Release/libsystem_config.a(interrupt.o)
 .text.IntPriorityThresholdSet
                0x00000000       0x14 ../../../../../..//binary/armv7a/gcc/am335x/system_config/Release/libsystem_config.a(interrupt.o)
 .text.IntRawStatusGet
                0x00000000       0x24 ../../../../../..//binary/armv7a/gcc/am335x/system_config/Release/libsystem_config.a(interrupt.o)
 .text.IntSoftwareIntSet
                0x00000000       0x20 ../../../../../..//binary/armv7a/gcc/am335x/system_config/Release/libsystem_config.a(interrupt.o)
 .text.IntSoftwareIntClear
                0x00000000       0x20 ../../../../../..//binary/armv7a/gcc/am335x/system_config/Release/libsystem_config.a(interrupt.o)
 .text.IntPendingIrqMaskedStatusGet
                0x00000000       0x24 ../../../../../..//binary/armv7a/gcc/am335x/system_config/Release/libsystem_config.a(interrupt.o)
 .text.IntMasterIRQDisable
                0x00000000       0x14 ../../../../../..//binary/armv7a/gcc/am335x/system_config/Release/libsystem_config.a(interrupt.o)
 .text.IntMasterFIQEnable
                0x00000000       0x14 ../../../../../..//binary/armv7a/gcc/am335x/system_config/Release/libsystem_config.a(interrupt.o)
 .text.IntMasterFIQDisable
                0x00000000       0x14 ../../../../../..//binary/armv7a/gcc/am335x/system_config/Release/libsystem_config.a(interrupt.o)
 .text.IntMasterStatusGet
                0x00000000       0x14 ../../../../../..//binary/armv7a/gcc/am335x/system_config/Release/libsystem_config.a(interrupt.o)
 .text.IntDisable
                0x00000000       0x28 ../../../../../..//binary/armv7a/gcc/am335x/system_config/Release/libsystem_config.a(interrupt.o)
 .text.IntEnable
                0x00000000       0x1c ../../../../../..//binary/armv7a/gcc/am335x/system_config/Release/libsystem_config.a(interrupt.o)
 .text          0x00000000        0x0 ../../../../../..//binary/armv7a/gcc/am335x/system_config/Release/libsystem_config.a(startup.o)
 .data          0x00000000        0x0 ../../../../../..//binary/armv7a/gcc/am335x/system_config/Release/libsystem_config.a(startup.o)
 .bss           0x00000000        0x0 ../../../../../..//binary/armv7a/gcc/am335x/system_config/Release/libsystem_config.a(startup.o)
 .rodata.AM335X_VECTOR_BASE
                0x00000000        0x4 ../../../../../..//binary/armv7a/gcc/am335x/system_config/Release/libsystem_config.a(startup.o)
 .data          0x00000000        0x0 ../../../../../..//binary/armv7a/gcc/am335x/system_config/Release/libsystem_config.a(cp15.o)
 .bss           0x00000000        0x0 ../../../../../..//binary/armv7a/gcc/am335x/system_config/Release/libsystem_config.a(cp15.o)
 .text          0x00000000        0x0 ../../../../../..//binary/armv7a/gcc/am335x/system_config/Release/libsystem_config.a(cpu.o)
 .data          0x00000000        0x0 ../../../../../..//binary/armv7a/gcc/am335x/system_config/Release/libsystem_config.a(cpu.o)
 .bss           0x00000000        0x0 ../../../../../..//binary/armv7a/gcc/am335x/system_config/Release/libsystem_config.a(cpu.o)
 .text.CPUSwitchToPrivilegedMode
                0x00000000        0x8 ../../../../../..//binary/armv7a/gcc/am335x/system_config/Release/libsystem_config.a(cpu.o)
 .text.CPUSwitchToUserMode
                0x00000000       0x14 ../../../../../..//binary/armv7a/gcc/am335x/system_config/Release/libsystem_config.a(cpu.o)
 .text.CPUAbortHandler
                0x00000000        0x4 ../../../../../..//binary/armv7a/gcc/am335x/system_config/Release/libsystem_config.a(cpu.o)
 .text.CPUIntStatus
                0x00000000        0xc ../../../../../..//binary/armv7a/gcc/am335x/system_config/Release/libsystem_config.a(cpu.o)
 .text.CPUirqd  0x00000000       0x14 ../../../../../..//binary/armv7a/gcc/am335x/system_config/Release/libsystem_config.a(cpu.o)
 .text.CPUfiqd  0x00000000       0x14 ../../../../../..//binary/armv7a/gcc/am335x/system_config/Release/libsystem_config.a(cpu.o)
 .text.CPUfiqe  0x00000000       0x14 ../../../../../..//binary/armv7a/gcc/am335x/system_config/Release/libsystem_config.a(cpu.o)
 .data          0x00000000        0x0 ../../../../../..//binary/armv7a/gcc/am335x/system_config/Release/libsystem_config.a(exceptionhandler.o)
 .bss           0x00000000        0x0 ../../../../../..//binary/armv7a/gcc/am335x/system_config/Release/libsystem_config.a(exceptionhandler.o)
 .data          0x00000000        0x0 /opt/gcc-arm-none-eabi-4_7-2013q1/lib/gcc/arm-none-eabi/4.7.3//libgcc.a(_udivsi3.o)
 .bss           0x00000000        0x0 /opt/gcc-arm-none-eabi-4_7-2013q1/lib/gcc/arm-none-eabi/4.7.3//libgcc.a(_udivsi3.o)
 .data          0x00000000        0x0 /opt/gcc-arm-none-eabi-4_7-2013q1/lib/gcc/arm-none-eabi/4.7.3//libgcc.a(_divsi3.o)
 .bss           0x00000000        0x0 /opt/gcc-arm-none-eabi-4_7-2013q1/lib/gcc/arm-none-eabi/4.7.3//libgcc.a(_divsi3.o)
 .data          0x00000000        0x0 /opt/gcc-arm-none-eabi-4_7-2013q1/lib/gcc/arm-none-eabi/4.7.3//libgcc.a(_dvmd_tls.o)
 .bss           0x00000000        0x0 /opt/gcc-arm-none-eabi-4_7-2013q1/lib/gcc/arm-none-eabi/4.7.3//libgcc.a(_dvmd_tls.o)
 .text          0x00000000        0x0 ../../../../../..//binary/armv7a/gcc/am335x/drivers/Release/libdrivers.a(uart_irda_cir.o)
 .data          0x00000000        0x0 ../../../../../..//binary/armv7a/gcc/am335x/drivers/Release/libdrivers.a(uart_irda_cir.o)
 .bss           0x00000000        0x0 ../../../../../..//binary/armv7a/gcc/am335x/drivers/Release/libdrivers.a(uart_irda_cir.o)
 .text.UARTDivisorLatchEnable
                0x00000000       0x10 ../../../../../..//binary/armv7a/gcc/am335x/drivers/Release/libdrivers.a(uart_irda_cir.o)
 .text.UARTRegConfModeRestore
                0x00000000        0x8 ../../../../../..//binary/armv7a/gcc/am335x/drivers/Release/libdrivers.a(uart_irda_cir.o)
 .text.UARTParityModeSet
                0x00000000       0x20 ../../../../../..//binary/armv7a/gcc/am335x/drivers/Release/libdrivers.a(uart_irda_cir.o)
 .text.UARTParityModeGet
                0x00000000        0xc ../../../../../..//binary/armv7a/gcc/am335x/drivers/Release/libdrivers.a(uart_irda_cir.o)
 .text.UARTDMAEnable
                0x00000000       0x30 ../../../../../..//binary/armv7a/gcc/am335x/drivers/Release/libdrivers.a(uart_irda_cir.o)
 .text.UARTDMADisable
                0x00000000       0x1c ../../../../../..//binary/armv7a/gcc/am335x/drivers/Release/libdrivers.a(uart_irda_cir.o)
 .text.UARTEnhanFuncEnable
                0x00000000       0x2c ../../../../../..//binary/armv7a/gcc/am335x/drivers/Release/libdrivers.a(uart_irda_cir.o)
 .text.UARTEnhanFuncBitValRestore
                0x00000000       0x30 ../../../../../..//binary/armv7a/gcc/am335x/drivers/Release/libdrivers.a(uart_irda_cir.o)
 .text.UARTSubConfigMSRSPRModeEn
                0x00000000       0x74 ../../../../../..//binary/armv7a/gcc/am335x/drivers/Release/libdrivers.a(uart_irda_cir.o)
 .text.UARTSubConfigXOFFModeEn
                0x00000000       0x74 ../../../../../..//binary/armv7a/gcc/am335x/drivers/Release/libdrivers.a(uart_irda_cir.o)
 .text.UARTIntEnable
                0x00000000       0x84 ../../../../../..//binary/armv7a/gcc/am335x/drivers/Release/libdrivers.a(uart_irda_cir.o)
 .text.UARTIntDisable
                0x00000000       0x74 ../../../../../..//binary/armv7a/gcc/am335x/drivers/Release/libdrivers.a(uart_irda_cir.o)
 .text.UARTSpaceAvail
                0x00000000       0x28 ../../../../../..//binary/armv7a/gcc/am335x/drivers/Release/libdrivers.a(uart_irda_cir.o)
 .text.UARTCharsAvail
                0x00000000       0x20 ../../../../../..//binary/armv7a/gcc/am335x/drivers/Release/libdrivers.a(uart_irda_cir.o)
 .text.UARTCharPutNonBlocking
                0x00000000       0x2c ../../../../../..//binary/armv7a/gcc/am335x/drivers/Release/libdrivers.a(uart_irda_cir.o)
 .text.UARTCharGetNonBlocking
                0x00000000       0x30 ../../../../../..//binary/armv7a/gcc/am335x/drivers/Release/libdrivers.a(uart_irda_cir.o)
 .text.UARTCharGetTimeout
                0x00000000       0x68 ../../../../../..//binary/armv7a/gcc/am335x/drivers/Release/libdrivers.a(uart_irda_cir.o)
 .text.UARTFIFOCharPut
                0x00000000        0x8 ../../../../../..//binary/armv7a/gcc/am335x/drivers/Release/libdrivers.a(uart_irda_cir.o)
 .text.UARTFIFOCharGet
                0x00000000        0xc ../../../../../..//binary/armv7a/gcc/am335x/drivers/Release/libdrivers.a(uart_irda_cir.o)
 .text.UARTFIFOWrite
                0x00000000       0x24 ../../../../../..//binary/armv7a/gcc/am335x/drivers/Release/libdrivers.a(uart_irda_cir.o)
 .text.UARTRxErrorGet
                0x00000000       0x20 ../../../../../..//binary/armv7a/gcc/am335x/drivers/Release/libdrivers.a(uart_irda_cir.o)
 .text.UARTIntIdentityGet
                0x00000000       0x20 ../../../../../..//binary/armv7a/gcc/am335x/drivers/Release/libdrivers.a(uart_irda_cir.o)
 .text.UARTIntPendingStatusGet
                0x00000000       0x20 ../../../../../..//binary/armv7a/gcc/am335x/drivers/Release/libdrivers.a(uart_irda_cir.o)
 .text.UARTFIFOEnableStatusGet
                0x00000000       0x28 ../../../../../..//binary/armv7a/gcc/am335x/drivers/Release/libdrivers.a(uart_irda_cir.o)
 .text.UARTAutoRTSAutoCTSControl
                0x00000000       0x40 ../../../../../..//binary/armv7a/gcc/am335x/drivers/Release/libdrivers.a(uart_irda_cir.o)
 .text.UARTSpecialCharDetectControl
                0x00000000       0x30 ../../../../../..//binary/armv7a/gcc/am335x/drivers/Release/libdrivers.a(uart_irda_cir.o)
 .text.UARTSoftwareFlowCtrlOptSet
                0x00000000       0x30 ../../../../../..//binary/armv7a/gcc/am335x/drivers/Release/libdrivers.a(uart_irda_cir.o)
 .text.UARTPulseShapingControl
                0x00000000       0x20 ../../../../../..//binary/armv7a/gcc/am335x/drivers/Release/libdrivers.a(uart_irda_cir.o)
 .text.UARTIdleModeConfigure
                0x00000000       0x20 ../../../../../..//binary/armv7a/gcc/am335x/drivers/Release/libdrivers.a(uart_irda_cir.o)
 .text.UARTWakeUpControl
                0x00000000       0x20 ../../../../../..//binary/armv7a/gcc/am335x/drivers/Release/libdrivers.a(uart_irda_cir.o)
 .text.UARTAutoIdleModeControl
                0x00000000       0x20 ../../../../../..//binary/armv7a/gcc/am335x/drivers/Release/libdrivers.a(uart_irda_cir.o)
 .text.UARTFlowCtrlTrigLvlConfig
                0x00000000       0x18 ../../../../../..//binary/armv7a/gcc/am335x/drivers/Release/libdrivers.a(uart_irda_cir.o)
 .text.UARTXON1XOFF1ValProgram
                0x00000000        0xc ../../../../../..//binary/armv7a/gcc/am335x/drivers/Release/libdrivers.a(uart_irda_cir.o)
 .text.UARTXON2XOFF2ValProgram
                0x00000000        0xc ../../../../../..//binary/armv7a/gcc/am335x/drivers/Release/libdrivers.a(uart_irda_cir.o)
 .text.UARTXONAnyFeatureControl
                0x00000000       0x5c ../../../../../..//binary/armv7a/gcc/am335x/drivers/Release/libdrivers.a(uart_irda_cir.o)
 .text.UARTLoopbackModeControl
                0x00000000       0x20 ../../../../../..//binary/armv7a/gcc/am335x/drivers/Release/libdrivers.a(uart_irda_cir.o)
 .text.UARTModemControlSet
                0x00000000       0x14 ../../../../../..//binary/armv7a/gcc/am335x/drivers/Release/libdrivers.a(uart_irda_cir.o)
 .text.UARTModemControlClear
                0x00000000       0x14 ../../../../../..//binary/armv7a/gcc/am335x/drivers/Release/libdrivers.a(uart_irda_cir.o)
 .text.UARTModemStatusGet
                0x00000000        0xc ../../../../../..//binary/armv7a/gcc/am335x/drivers/Release/libdrivers.a(uart_irda_cir.o)
 .text.UARTModemStatusChangeCheck
                0x00000000        0xc ../../../../../..//binary/armv7a/gcc/am335x/drivers/Release/libdrivers.a(uart_irda_cir.o)
 .text.UARTResumeOperation
                0x00000000        0x8 ../../../../../..//binary/armv7a/gcc/am335x/drivers/Release/libdrivers.a(uart_irda_cir.o)
 .text.UARTWakeUpEventsEnable
                0x00000000       0x14 ../../../../../..//binary/armv7a/gcc/am335x/drivers/Release/libdrivers.a(uart_irda_cir.o)
 .text.UARTWakeUpEventsDisable
                0x00000000       0x14 ../../../../../..//binary/armv7a/gcc/am335x/drivers/Release/libdrivers.a(uart_irda_cir.o)
 .text.UARTFIFOTrigLvlGranControl
                0x00000000       0x30 ../../../../../..//binary/armv7a/gcc/am335x/drivers/Release/libdrivers.a(uart_irda_cir.o)
 .text.UARTDSRInterruptControl
                0x00000000       0x20 ../../../../../..//binary/armv7a/gcc/am335x/drivers/Release/libdrivers.a(uart_irda_cir.o)
 .text.UARTTxEmptyIntControl
                0x00000000       0x20 ../../../../../..//binary/armv7a/gcc/am335x/drivers/Release/libdrivers.a(uart_irda_cir.o)
 .text.UARTRXCTSDSRWakeUpConfigure
                0x00000000       0x20 ../../../../../..//binary/armv7a/gcc/am335x/drivers/Release/libdrivers.a(uart_irda_cir.o)
 .text.UARTRXCTSDSRTransitionStatusGet
                0x00000000        0xc ../../../../../..//binary/armv7a/gcc/am335x/drivers/Release/libdrivers.a(uart_irda_cir.o)
 .text.UARTDMACounterResetControl
                0x00000000       0x20 ../../../../../..//binary/armv7a/gcc/am335x/drivers/Release/libdrivers.a(uart_irda_cir.o)
 .text.UARTTxFIFOFullStatusGet
                0x00000000        0xc ../../../../../..//binary/armv7a/gcc/am335x/drivers/Release/libdrivers.a(uart_irda_cir.o)
 .text.UARTTxFIFOLevelGet
                0x00000000        0x8 ../../../../../..//binary/armv7a/gcc/am335x/drivers/Release/libdrivers.a(uart_irda_cir.o)
 .text.UARTRxFIFOLevelGet
                0x00000000        0x8 ../../../../../..//binary/armv7a/gcc/am335x/drivers/Release/libdrivers.a(uart_irda_cir.o)
 .text.UARTAutobaudParityGet
                0x00000000       0x1c ../../../../../..//binary/armv7a/gcc/am335x/drivers/Release/libdrivers.a(uart_irda_cir.o)
 .text.UARTAutobaudWordLenGet
                0x00000000       0x1c ../../../../../..//binary/armv7a/gcc/am335x/drivers/Release/libdrivers.a(uart_irda_cir.o)
 .text.UARTAutobaudSpeedGet
                0x00000000       0x1c ../../../../../..//binary/armv7a/gcc/am335x/drivers/Release/libdrivers.a(uart_irda_cir.o)
 .text.UARTScratchPadRegWrite
                0x00000000       0x20 ../../../../../..//binary/armv7a/gcc/am335x/drivers/Release/libdrivers.a(uart_irda_cir.o)
 .text.UARTScratchPadRegRead
                0x00000000        0xc ../../../../../..//binary/armv7a/gcc/am335x/drivers/Release/libdrivers.a(uart_irda_cir.o)
 .text.UARTModuleVersionNumberGet
                0x00000000        0xc ../../../../../..//binary/armv7a/gcc/am335x/drivers/Release/libdrivers.a(uart_irda_cir.o)
 .text.UARTTxDMAThresholdControl
                0x00000000       0x20 ../../../../../..//binary/armv7a/gcc/am335x/drivers/Release/libdrivers.a(uart_irda_cir.o)
 .text.UARTTxDMAThresholdValConfig
                0x00000000       0x20 ../../../../../..//binary/armv7a/gcc/am335x/drivers/Release/libdrivers.a(uart_irda_cir.o)

Memory Configuration

Name             Origin             Length             Attributes
DDR0             0x80000000         0x20000000
*default*        0x00000000         0xffffffff

Linker script and memory map

LOAD Release/dcan_frame.o
LOAD Release/dcanTxRx.o
LOAD ../../../../../..//binary/armv7a/gcc/am335x/drivers/Release/libdrivers.a
LOAD ../../../../../..//binary/armv7a/gcc/utils/Release/libutils.a
LOAD ../../../../../..//binary/armv7a/gcc/am335x/ok335xd/platform/Release/libplatform.a
LOAD ../../../../../..//binary/armv7a/gcc/am335x/system_config/Release/libsystem_config.a
LOAD /opt/gcc-arm-none-eabi-4_7-2013q1/arm-none-eabi/lib//libc.a
LOAD /opt/gcc-arm-none-eabi-4_7-2013q1/lib/gcc/arm-none-eabi/4.7.3//libgcc.a
LOAD ../../../../../..//binary/armv7a/gcc/am335x/drivers/Release/libdrivers.a
LOAD ../../../../../..//binary/armv7a/gcc/utils/Release/libutils.a
LOAD ../../../../../..//binary/armv7a/gcc/am335x/ok335xd/platform/Release/libplatform.a
LOAD ../../../../../..//binary/armv7a/gcc/am335x/system_config/Release/libsystem_config.a
LOAD /opt/gcc-arm-none-eabi-4_7-2013q1/arm-none-eabi/lib//libc.a
LOAD /opt/gcc-arm-none-eabi-4_7-2013q1/lib/gcc/arm-none-eabi/4.7.3//libgcc.a

.startcode      0x80000000       0xb4
                0x80000000                . = ALIGN (0x4)
 *init.o(.text)
 .text          0x80000000       0xb4 ../../../../../..//binary/armv7a/gcc/am335x/system_config/Release/libsystem_config.a(init.o)
                0x80000000                Entry

.text           0x800000b4     0x3b3c
                0x800000b4                . = ALIGN (0x4)
 *(.text*)
 .text.CANTxObjectConfig
                0x800000b4       0xf0 Release/dcan_frame.o
                0x800000b4                CANTxObjectConfig
 .text.CANRxObjectConfig
                0x800001a4      0x124 Release/dcan_frame.o
                0x800001a4                CANRxObjectConfig
 .text.CANMsgObjectConfig
                0x800002c8       0x40 Release/dcan_frame.o
                0x800002c8                CANMsgObjectConfig
 .text.CANReadMsgObjData
                0x80000308       0x5c Release/dcan_frame.o
                0x80000308                CANReadMsgObjData
 .text.CANClrIntPndStat
                0x80000364       0x40 Release/dcan_frame.o
                0x80000364                CANClrIntPndStat
 .text.CANInValidateMsgObject
                0x800003a4       0x40 Release/dcan_frame.o
                0x800003a4                CANInValidateMsgObject
 .text.CANTxIntDisable
                0x800003e4       0x40 Release/dcan_frame.o
                0x800003e4                CANTxIntDisable
 .text.CANRxIntDisable
                0x80000424       0x40 Release/dcan_frame.o
                0x80000424                CANRxIntDisable
 .text.canUpdatSamPt
                0x80000464       0x94 Release/dcan_frame.o
                0x80000464                canUpdatSamPt
 .text.CANbitTimeCalculator
                0x800004f8      0x328 Release/dcan_frame.o
                0x800004f8                CANbitTimeCalculator
 .text.CANSetBitTiming
                0x80000820       0x98 Release/dcan_frame.o
                0x80000820                CANSetBitTiming
 .text.DCANIsr0
                0x800008b8      0x2b4 Release/dcanTxRx.o
 .text.StartDCANTransfer
                0x80000b6c       0x48 Release/dcanTxRx.o
 .text.MsgTransfer
                0x80000bb4      0x2e8 Release/dcanTxRx.o
 .text.DCANParityIsr
                0x80000e9c       0xc0 Release/dcanTxRx.o
 .text.startup.main
                0x80000f5c      0x208 Release/dcanTxRx.o
                0x80000f5c                main
 .text.DCANInitModeSet
                0x80001164       0x1c ../../../../../..//binary/armv7a/gcc/am335x/drivers/Release/libdrivers.a(dcan.o)
                0x80001164                DCANInitModeSet
 .text.DCANNormalModeSet
                0x80001180       0x1c ../../../../../..//binary/armv7a/gcc/am335x/drivers/Release/libdrivers.a(dcan.o)
                0x80001180                DCANNormalModeSet
 .text.DCANBitTimingConfig
                0x8000119c        0x8 ../../../../../..//binary/armv7a/gcc/am335x/drivers/Release/libdrivers.a(dcan.o)
                0x8000119c                DCANBitTimingConfig
 .text.DCANReset
                0x800011a4       0x1c ../../../../../..//binary/armv7a/gcc/am335x/drivers/Release/libdrivers.a(dcan.o)
                0x800011a4                DCANReset
 .text.DCANIntEnable
                0x800011c0       0x14 ../../../../../..//binary/armv7a/gcc/am335x/drivers/Release/libdrivers.a(dcan.o)
                0x800011c0                DCANIntEnable
 .text.DCANConfigRegWriteAccessControl
                0x800011d4       0x20 ../../../../../..//binary/armv7a/gcc/am335x/drivers/Release/libdrivers.a(dcan.o)
                0x800011d4                DCANConfigRegWriteAccessControl
 .text.DCANAutoBusOnControl
                0x800011f4       0x20 ../../../../../..//binary/armv7a/gcc/am335x/drivers/Release/libdrivers.a(dcan.o)
                0x800011f4                DCANAutoBusOnControl
 .text.DCANIntLineEnable
                0x80001214       0x1c ../../../../../..//binary/armv7a/gcc/am335x/drivers/Release/libdrivers.a(dcan.o)
                0x80001214                DCANIntLineEnable
 .text.DCANIntRegStatusGet
                0x80001230        0xc ../../../../../..//binary/armv7a/gcc/am335x/drivers/Release/libdrivers.a(dcan.o)
                0x80001230                DCANIntRegStatusGet
 .text.DCANErrAndStatusRegInfoGet
                0x8000123c        0x8 ../../../../../..//binary/armv7a/gcc/am335x/drivers/Release/libdrivers.a(dcan.o)
                0x8000123c                DCANErrAndStatusRegInfoGet
 .text.DCANParityErrCdRegStatusGet
                0x80001244        0xc ../../../../../..//binary/armv7a/gcc/am335x/drivers/Release/libdrivers.a(dcan.o)
                0x80001244                DCANParityErrCdRegStatusGet
 .text.DCANTxRqstStatGet
                0x80001250       0x3c ../../../../../..//binary/armv7a/gcc/am335x/drivers/Release/libdrivers.a(dcan.o)
                0x80001250                DCANTxRqstStatGet
 .text.DCANMsgValidStatusGet
                0x8000128c       0x20 ../../../../../..//binary/armv7a/gcc/am335x/drivers/Release/libdrivers.a(dcan.o)
                0x8000128c                DCANMsgValidStatusGet
 .text.DCANMsgObjValidate
                0x800012ac       0x2c ../../../../../..//binary/armv7a/gcc/am335x/drivers/Release/libdrivers.a(dcan.o)
                0x800012ac                DCANMsgObjValidate
 .text.DCANMsgObjInvalidate
                0x800012d8       0x2c ../../../../../..//binary/armv7a/gcc/am335x/drivers/Release/libdrivers.a(dcan.o)
                0x800012d8                DCANMsgObjInvalidate
 .text.DCANCommandRegSet
                0x80001304       0x60 ../../../../../..//binary/armv7a/gcc/am335x/drivers/Release/libdrivers.a(dcan.o)
                0x80001304                DCANCommandRegSet
 .text.DCANMsgIdSet
                0x80001364       0x60 ../../../../../..//binary/armv7a/gcc/am335x/drivers/Release/libdrivers.a(dcan.o)
                0x80001364                DCANMsgIdSet
 .text.DCANMsgDirectionSet
                0x800013c4       0x48 ../../../../../..//binary/armv7a/gcc/am335x/drivers/Release/libdrivers.a(dcan.o)
                0x800013c4                DCANMsgDirectionSet
 .text.DCANDataWrite
                0x8000140c       0x3c ../../../../../..//binary/armv7a/gcc/am335x/drivers/Release/libdrivers.a(dcan.o)
                0x8000140c                DCANDataWrite
 .text.DCANDataRead
                0x80001448       0x1c ../../../../../..//binary/armv7a/gcc/am335x/drivers/Release/libdrivers.a(dcan.o)
                0x80001448                DCANDataRead
 .text.DCANDataLengthCodeSet
                0x80001464       0x48 ../../../../../..//binary/armv7a/gcc/am335x/drivers/Release/libdrivers.a(dcan.o)
                0x80001464                DCANDataLengthCodeSet
 .text.DCANMsgObjIntEnable
                0x800014ac       0x30 ../../../../../..//binary/armv7a/gcc/am335x/drivers/Release/libdrivers.a(dcan.o)
                0x800014ac                DCANMsgObjIntEnable
 .text.DCANMsgObjIntDisable
                0x800014dc       0x30 ../../../../../..//binary/armv7a/gcc/am335x/drivers/Release/libdrivers.a(dcan.o)
                0x800014dc                DCANMsgObjIntDisable
 .text.DCANFIFOEndOfBlockControl
                0x8000150c       0x48 ../../../../../..//binary/armv7a/gcc/am335x/drivers/Release/libdrivers.a(dcan.o)
                0x8000150c                DCANFIFOEndOfBlockControl
 .text.DCANMsgObjectMskConfig
                0x80001554       0x44 ../../../../../..//binary/armv7a/gcc/am335x/drivers/Release/libdrivers.a(dcan.o)
                0x80001554                DCANMsgObjectMskConfig
 .text.DCANIFMsgCtlStatusGet
                0x80001598       0x10 ../../../../../..//binary/armv7a/gcc/am335x/drivers/Release/libdrivers.a(dcan.o)
                0x80001598                DCANIFMsgCtlStatusGet
 .text.DCANClrIntPnd
                0x800015a8       0x2c ../../../../../..//binary/armv7a/gcc/am335x/drivers/Release/libdrivers.a(dcan.o)
                0x800015a8                DCANClrIntPnd
 .text.DCANNewDataControl
                0x800015d4       0x28 ../../../../../..//binary/armv7a/gcc/am335x/drivers/Release/libdrivers.a(dcan.o)
                0x800015d4                DCANNewDataControl
 .text.DCANUseAcceptanceMaskControl
                0x800015fc       0x28 ../../../../../..//binary/armv7a/gcc/am335x/drivers/Release/libdrivers.a(dcan.o)
                0x800015fc                DCANUseAcceptanceMaskControl
 .text.ConsoleUtilsInit
                0x80001624       0x14 ../../../../../..//binary/armv7a/gcc/utils/Release/libutils.a(consoleUtils.o)
                0x80001624                ConsoleUtilsInit
 .text.ConsoleUtilsSetType
                0x80001638       0x38 ../../../../../..//binary/armv7a/gcc/utils/Release/libutils.a(consoleUtils.o)
                0x80001638                ConsoleUtilsSetType
 .text.ConsoleUtilsPrintf
                0x80001670       0x64 ../../../../../..//binary/armv7a/gcc/utils/Release/libutils.a(consoleUtils.o)
                0x80001670                ConsoleUtilsPrintf
 .text.ConsoleUtilsScanf
                0x800016d4       0x68 ../../../../../..//binary/armv7a/gcc/utils/Release/libutils.a(consoleUtils.o)
                0x800016d4                ConsoleUtilsScanf
 .text.ConsoleUtilsGets
                0x8000173c       0x48 ../../../../../..//binary/armv7a/gcc/utils/Release/libutils.a(consoleUtils.o)
                0x8000173c                ConsoleUtilsGets
 .text.ConsoleUtilsPutChar
                0x80001784       0x44 ../../../../../..//binary/armv7a/gcc/utils/Release/libutils.a(consoleUtils.o)
                0x80001784                ConsoleUtilsPutChar
 .text.UARTStdioInit
                0x800017c8       0x14 ../../../../../..//binary/armv7a/gcc/utils/Release/libutils.a(uartStdio.o)
                0x800017c8                UARTStdioInit
 .text.UARTPuts
                0x800017dc       0x78 ../../../../../..//binary/armv7a/gcc/utils/Release/libutils.a(uartStdio.o)
                0x800017dc                UARTPuts
 .text.UARTGets
                0x80001854       0x98 ../../../../../..//binary/armv7a/gcc/utils/Release/libutils.a(uartStdio.o)
                0x80001854                UARTGets
 .text.UARTPutc
                0x800018ec       0x14 ../../../../../..//binary/armv7a/gcc/utils/Release/libutils.a(uartStdio.o)
                0x800018ec                UARTPutc
 .text.UARTwrite
                0x80001900       0x58 ../../../../../..//binary/armv7a/gcc/utils/Release/libutils.a(uartStdio.o)
                0x80001900                UARTwrite
 .text.UARTScanf
                0x80001958      0x718 ../../../../../..//binary/armv7a/gcc/utils/Release/libutils.a(uartStdio.o)
                0x80001958                UARTScanf
 .text.UARTPrintf
                0x80002070      0x4bc ../../../../../..//binary/armv7a/gcc/utils/Release/libutils.a(uartStdio.o)
                0x80002070                UARTPrintf
 .text.ASCIIToDigit
                0x8000252c       0x84 ../../../../../..//binary/armv7a/gcc/utils/Release/libutils.a(ascii.o)
                0x8000252c                ASCIIToDigit
 .text.DCANPinMuxSetUp
                0x800025b0       0x20 ../../../../../..//binary/armv7a/gcc/am335x/ok335xd/platform/Release/libplatform.a(dcan.o)
                0x800025b0                DCANPinMuxSetUp
 .text.DCANMsgRAMInit
                0x800025d0       0x4c ../../../../../..//binary/armv7a/gcc/am335x/ok335xd/platform/Release/libplatform.a(dcan.o)
                0x800025d0                DCANMsgRAMInit
 .text.DCANModuleClkConfig
                0x8000261c      0x178 ../../../../../..//binary/armv7a/gcc/am335x/ok335xd/platform/Release/libplatform.a(dcan.o)
                0x8000261c                DCANModuleClkConfig
 .text.UARTConsoleInit
                0x80002794       0xf0 ../../../../../..//binary/armv7a/gcc/am335x/ok335xd/platform/Release/libplatform.a(uartConsole.o)
                0x80002794                UARTConsoleInit
 .text.UARTConsolePutc
                0x80002884       0x20 ../../../../../..//binary/armv7a/gcc/am335x/ok335xd/platform/Release/libplatform.a(uartConsole.o)
                0x80002884                UARTConsolePutc
 .text.UARTConsoleGetc
                0x800028a4       0x20 ../../../../../..//binary/armv7a/gcc/am335x/ok335xd/platform/Release/libplatform.a(uartConsole.o)
                0x800028a4                UARTConsoleGetc
 .text.UARTPinMuxSetup
                0x800028c4       0x24 ../../../../../..//binary/armv7a/gcc/am335x/ok335xd/platform/Release/libplatform.a(uart.o)
                0x800028c4                UARTPinMuxSetup
 .text.UART0ModuleClkConfig
                0x800028e8       0x54 ../../../../../..//binary/armv7a/gcc/am335x/ok335xd/platform/Release/libplatform.a(uart.o)
                0x800028e8                UART0ModuleClkConfig
 .text.IntDefaultHandler
                0x8000293c        0x4 ../../../../../..//binary/armv7a/gcc/am335x/system_config/Release/libsystem_config.a(interrupt.o)
 .text.IntRegister
                0x80002940       0x10 ../../../../../..//binary/armv7a/gcc/am335x/system_config/Release/libsystem_config.a(interrupt.o)
                0x80002940                IntRegister
 .text.IntAINTCInit
                0x80002950       0x54 ../../../../../..//binary/armv7a/gcc/am335x/system_config/Release/libsystem_config.a(interrupt.o)
                0x80002950                IntAINTCInit
 .text.IntPrioritySet
                0x800029a4       0x24 ../../../../../..//binary/armv7a/gcc/am335x/system_config/Release/libsystem_config.a(interrupt.o)
                0x800029a4                IntPrioritySet
 .text.IntSystemEnable
                0x800029c8       0x24 ../../../../../..//binary/armv7a/gcc/am335x/system_config/Release/libsystem_config.a(interrupt.o)
                0x800029c8                IntSystemEnable
 .text.IntMasterIRQEnable
                0x800029ec       0x14 ../../../../../..//binary/armv7a/gcc/am335x/system_config/Release/libsystem_config.a(interrupt.o)
                0x800029ec                IntMasterIRQEnable
 .text.start_boot
                0x80002a00       0x60 ../../../../../..//binary/armv7a/gcc/am335x/system_config/Release/libsystem_config.a(startup.o)
                0x80002a00                start_boot
 .text          0x80002a60      0x488 ../../../../../..//binary/armv7a/gcc/am335x/system_config/Release/libsystem_config.a(cp15.o)
                0x80002a60                CP15ICacheDisable
                0x80002a7c                CP15DCacheDisable
                0x80002a98                CP15ICacheEnable
                0x80002aa8                CP15DCacheEnable
                0x80002ab8                CP15DCacheFlush
                0x80002b4c                CP15DCacheClean
                0x80002be0                CP15DCacheCleanFlush
                0x80002c74                CP15ICacheFlush
                0x80002c84                CP15DCacheCleanBuff
                0x80002cd8                CP15DCacheCleanFlushBuff
                0x80002d2c                CP15DCacheFlushBuff
                0x80002d90                CP15ICacheFlushBuff
                0x80002de4                CP15Ttb0Set
                0x80002df0                CP15TlbInvalidate
                0x80002dfc                CP15MMUDisable
                0x80002e14                CP15MMUEnable
                0x80002e28                CP15VectorBaseAddrSet
                0x80002e34                CP15BranchPredictorInvalidate
                0x80002e40                CP15BranchPredictionEnable
                0x80002e50                CP15BranchPredictionDisable
                0x80002e60                CP15DomainAccessClientSet
                0x80002e70                CP15ControlFeatureDisable
                0x80002e84                CP15ControlFeatureEnable
                0x80002e98                CP15TtbCtlTtb0Config
                0x80002ea8                CP15AuxControlFeatureEnable
                0x80002ebc                CP15AuxControlFeatureDisable
                0x80002ed0                CP15MainIdPrimPartNumGet
 .text.CPUirqe  0x80002ee8       0x14 ../../../../../..//binary/armv7a/gcc/am335x/system_config/Release/libsystem_config.a(cpu.o)
                0x80002ee8                CPUirqe
 .text          0x80002efc       0xf0 ../../../../../..//binary/armv7a/gcc/am335x/system_config/Release/libsystem_config.a(exceptionhandler.o)
                0x80002efc                SVC_Handler
                0x80002f24                IRQHandler
                0x80002fd0                FIQHandler
                0x80002fd4                UndefInstHandler
                0x80002fd4                AbortHandler
 .text          0x80002fec      0x114 /opt/gcc-arm-none-eabi-4_7-2013q1/lib/gcc/arm-none-eabi/4.7.3//libgcc.a(_udivsi3.o)
                0x80002fec                __udivsi3
                0x80002fec                __aeabi_uidiv
                0x800030e0                __aeabi_uidivmod
 .text          0x80003100      0x148 /opt/gcc-arm-none-eabi-4_7-2013q1/lib/gcc/arm-none-eabi/4.7.3//libgcc.a(_divsi3.o)
                0x80003100                __aeabi_idiv
                0x80003100                __divsi3
                0x80003228                __aeabi_idivmod
 .text          0x80003248        0x4 /opt/gcc-arm-none-eabi-4_7-2013q1/lib/gcc/arm-none-eabi/4.7.3//libgcc.a(_dvmd_tls.o)
                0x80003248                __aeabi_ldiv0
                0x80003248                __aeabi_idiv0
 .text.UARTOperatingModeSelect
                0x8000324c       0x2c ../../../../../..//binary/armv7a/gcc/am335x/drivers/Release/libdrivers.a(uart_irda_cir.o)
                0x8000324c                UARTOperatingModeSelect
 .text.UARTDivisorValCompute
                0x80003278       0x68 ../../../../../..//binary/armv7a/gcc/am335x/drivers/Release/libdrivers.a(uart_irda_cir.o)
                0x80003278                UARTDivisorValCompute
 .text.UARTDivisorLatchDisable
                0x800032e0       0x10 ../../../../../..//binary/armv7a/gcc/am335x/drivers/Release/libdrivers.a(uart_irda_cir.o)
                0x800032e0                UARTDivisorLatchDisable
 .text.UARTRegConfigModeEnable
                0x800032f0       0x44 ../../../../../..//binary/armv7a/gcc/am335x/drivers/Release/libdrivers.a(uart_irda_cir.o)
                0x800032f0                UARTRegConfigModeEnable
 .text.UARTDivisorLatchWrite
                0x80003334      0x13c ../../../../../..//binary/armv7a/gcc/am335x/drivers/Release/libdrivers.a(uart_irda_cir.o)
                0x80003334                UARTDivisorLatchWrite
 .text.UARTBreakCtl
                0x80003470       0x20 ../../../../../..//binary/armv7a/gcc/am335x/drivers/Release/libdrivers.a(uart_irda_cir.o)
                0x80003470                UARTBreakCtl
 .text.UARTLineCharacConfig
                0x80003490       0x3c ../../../../../..//binary/armv7a/gcc/am335x/drivers/Release/libdrivers.a(uart_irda_cir.o)
                0x80003490                UARTLineCharacConfig
 .text.UARTFIFORegisterWrite
                0x800034cc       0x88 ../../../../../..//binary/armv7a/gcc/am335x/drivers/Release/libdrivers.a(uart_irda_cir.o)
                0x800034cc                UARTFIFORegisterWrite
 .text.UARTSubConfigTCRTLRModeEn
                0x80003554       0x74 ../../../../../..//binary/armv7a/gcc/am335x/drivers/Release/libdrivers.a(uart_irda_cir.o)
                0x80003554                UARTSubConfigTCRTLRModeEn
 .text.UARTTCRTLRBitValRestore
                0x800035c8       0x78 ../../../../../..//binary/armv7a/gcc/am335x/drivers/Release/libdrivers.a(uart_irda_cir.o)
                0x800035c8                UARTTCRTLRBitValRestore
 .text.UARTFIFOConfig
                0x80003640      0x224 ../../../../../..//binary/armv7a/gcc/am335x/drivers/Release/libdrivers.a(uart_irda_cir.o)
                0x80003640                UARTFIFOConfig
 .text.UARTCharGet
                0x80003864       0x30 ../../../../../..//binary/armv7a/gcc/am335x/drivers/Release/libdrivers.a(uart_irda_cir.o)
                0x80003864                UARTCharGet
 .text.UARTCharPut
                0x80003894       0x30 ../../../../../..//binary/armv7a/gcc/am335x/drivers/Release/libdrivers.a(uart_irda_cir.o)
                0x80003894                UARTCharPut
 .text.UARTModuleReset
                0x800038c4       0x20 ../../../../../..//binary/armv7a/gcc/am335x/drivers/Release/libdrivers.a(uart_irda_cir.o)
                0x800038c4                UARTModuleReset
 *(.rodata*)
 .rodata        0x800038e4       0x28 Release/dcanTxRx.o
 .rodata.str1.4
                0x8000390c      0x1db Release/dcanTxRx.o
                                0x1e4 (size before relaxing)
 *fill*         0x80003ae7        0x1 00
 .rodata.str1.4
                0x80003ae8       0x50 ../../../../../..//binary/armv7a/gcc/utils/Release/libutils.a(consoleUtils.o)
 .rodata.str1.4
                0x80003b38       0x5c ../../../../../..//binary/armv7a/gcc/utils/Release/libutils.a(uartStdio.o)
                                 0x60 (size before relaxing)
 .rodata.str1.4
                0x80003b94       0x24 ../../../../../..//binary/armv7a/gcc/am335x/ok335xd/platform/Release/libplatform.a(dcan.o)
 .rodata.vecTbl
                0x80003bb8       0x38 ../../../../../..//binary/armv7a/gcc/am335x/system_config/Release/libsystem_config.a(startup.o)

.glue_7         0x80003bf0        0x0
 .glue_7        0x00000000        0x0 linker stubs

.glue_7t        0x80003bf0        0x0
 .glue_7t       0x00000000        0x0 linker stubs

.vfp11_veneer   0x80003bf0        0x0
 .vfp11_veneer  0x00000000        0x0 linker stubs

.v4_bx          0x80003bf0        0x0
 .v4_bx         0x00000000        0x0 linker stubs

.iplt           0x80003bf0        0x0
 .iplt          0x00000000        0x0 Release/dcan_frame.o

.rel.dyn        0x80003bf0        0x0
 .rel.iplt      0x00000000        0x0 Release/dcan_frame.o

.data           0x80003bf0       0x28
                0x80003bf0                . = ALIGN (0x4)
 *(.data*)
 .data.dcan_hw_params.4385
                0x80003bf0       0x20 Release/dcan_frame.o
 .data.isrTxFlag
                0x80003c10        0x4 Release/dcanTxRx.o
 .data.isrRxFlag
                0x80003c14        0x4 Release/dcanTxRx.o

.igot.plt       0x80003c18        0x0
 .igot.plt      0x00000000        0x0 Release/dcan_frame.o

.bss            0x80003c18      0x228
                0x80003c18                . = ALIGN (0x4)
                0x80003c18                _bss_start = .
 *(.bss*)
 .bss.value     0x80003c18        0x4 Release/dcanTxRx.o
 .bss.data      0x80003c1c        0x8 Release/dcanTxRx.o
 .bss.index1    0x80003c24        0x4 Release/dcanTxRx.o
 .bss.index3    0x80003c28        0x4 Release/dcanTxRx.o
 .bss.ConsoleType
                0x80003c2c        0x1 ../../../../../..//binary/armv7a/gcc/utils/Release/libutils.a(consoleUtils.o)
 *(COMMON)
 *fill*         0x80003c2d        0x3 00
 COMMON         0x80003c30       0x10 Release/dcanTxRx.o
                0x80003c30                entry
 COMMON         0x80003c40      0x200 ../../../../../..//binary/armv7a/gcc/am335x/system_config/Release/libsystem_config.a(interrupt.o)
                0x80003c40                fnRAMVectors
                0x80003e40                _bss_end = .

.heap           0x80003e40      0x800
                0x80003e40                . = ALIGN (0x4)
                0x80003e40                __end__ = .
                0x80003e40                end = __end__
                0x80003e40                __HeapBase = __end__
 *(.heap*)
                0x80004640                . = (. + 0x800)
 *fill*         0x80003e40      0x800 00
                0x80004640                __HeapLimit = .

.stack          0x80004640  0x7fffff8
                0x80004640                . = ALIGN (0x4)
                0x80004640                __StackLimit = .
 *(.stack*)
                0x88004638                . = (. + 0x7fffff8)
 *fill*         0x80004640  0x7fffff8 00
                0x88004638                __StackTop = .
                0x88004638                _stack = __StackTop
OUTPUT(Release/dcanTxRx.out elf32-littlearm)

.debug_info     0x00000000     0x69af
 .debug_info    0x00000000      0xb80 Release/dcan_frame.o
 .debug_info    0x00000b80      0x8e9 Release/dcanTxRx.o
 .debug_info    0x00001469     0x11c1 ../../../../../..//binary/armv7a/gcc/am335x/drivers/Release/libdrivers.a(dcan.o)
 .debug_info    0x0000262a      0x384 ../../../../../..//binary/armv7a/gcc/utils/Release/libutils.a(consoleUtils.o)
 .debug_info    0x000029ae      0xfce ../../../../../..//binary/armv7a/gcc/utils/Release/libutils.a(uartStdio.o)
 .debug_info    0x0000397c      0x38a ../../../../../..//binary/armv7a/gcc/utils/Release/libutils.a(ascii.o)
 .debug_info    0x00003d06      0x105 ../../../../../..//binary/armv7a/gcc/am335x/ok335xd/platform/Release/libplatform.a(dcan.o)
 .debug_info    0x00003e0b      0x270 ../../../../../..//binary/armv7a/gcc/am335x/ok335xd/platform/Release/libplatform.a(uartConsole.o)
 .debug_info    0x0000407b       0x7b ../../../../../..//binary/armv7a/gcc/am335x/ok335xd/platform/Release/libplatform.a(uart.o)
 .debug_info    0x000040f6       0xa5 ../../../../../..//binary/armv7a/gcc/am335x/system_config/Release/libsystem_config.a(init.o)
 .debug_info    0x0000419b      0x4e5 ../../../../../..//binary/armv7a/gcc/am335x/system_config/Release/libsystem_config.a(interrupt.o)
 .debug_info    0x00004680      0x116 ../../../../../..//binary/armv7a/gcc/am335x/system_config/Release/libsystem_config.a(startup.o)
 .debug_info    0x00004796       0xa5 ../../../../../..//binary/armv7a/gcc/am335x/system_config/Release/libsystem_config.a(cp15.o)
 .debug_info    0x0000483b       0xef ../../../../../..//binary/armv7a/gcc/am335x/system_config/Release/libsystem_config.a(cpu.o)
 .debug_info    0x0000492a       0xb8 ../../../../../..//binary/armv7a/gcc/am335x/system_config/Release/libsystem_config.a(exceptionhandler.o)
 .debug_info    0x000049e2     0x1fcd ../../../../../..//binary/armv7a/gcc/am335x/drivers/Release/libdrivers.a(uart_irda_cir.o)

.debug_abbrev   0x00000000     0x147d
 .debug_abbrev  0x00000000      0x1e1 Release/dcan_frame.o
 .debug_abbrev  0x000001e1      0x24e Release/dcanTxRx.o
 .debug_abbrev  0x0000042f      0x177 ../../../../../..//binary/armv7a/gcc/am335x/drivers/Release/libdrivers.a(dcan.o)
 .debug_abbrev  0x000005a6      0x1ab ../../../../../..//binary/armv7a/gcc/utils/Release/libutils.a(consoleUtils.o)
 .debug_abbrev  0x00000751      0x309 ../../../../../..//binary/armv7a/gcc/utils/Release/libutils.a(uartStdio.o)
 .debug_abbrev  0x00000a5a      0x171 ../../../../../..//binary/armv7a/gcc/utils/Release/libutils.a(ascii.o)
 .debug_abbrev  0x00000bcb       0xe2 ../../../../../..//binary/armv7a/gcc/am335x/ok335xd/platform/Release/libplatform.a(dcan.o)
 .debug_abbrev  0x00000cad      0x10e ../../../../../..//binary/armv7a/gcc/am335x/ok335xd/platform/Release/libplatform.a(uartConsole.o)
 .debug_abbrev  0x00000dbb       0x62 ../../../../../..//binary/armv7a/gcc/am335x/ok335xd/platform/Release/libplatform.a(uart.o)
 .debug_abbrev  0x00000e1d       0x14 ../../../../../..//binary/armv7a/gcc/am335x/system_config/Release/libsystem_config.a(init.o)
 .debug_abbrev  0x00000e31      0x20b ../../../../../..//binary/armv7a/gcc/am335x/system_config/Release/libsystem_config.a(interrupt.o)
 .debug_abbrev  0x0000103c       0xe8 ../../../../../..//binary/armv7a/gcc/am335x/system_config/Release/libsystem_config.a(startup.o)
 .debug_abbrev  0x00001124       0x14 ../../../../../..//binary/armv7a/gcc/am335x/system_config/Release/libsystem_config.a(cp15.o)
 .debug_abbrev  0x00001138       0x64 ../../../../../..//binary/armv7a/gcc/am335x/system_config/Release/libsystem_config.a(cpu.o)
 .debug_abbrev  0x0000119c       0x14 ../../../../../..//binary/armv7a/gcc/am335x/system_config/Release/libsystem_config.a(exceptionhandler.o)
 .debug_abbrev  0x000011b0      0x2cd ../../../../../..//binary/armv7a/gcc/am335x/drivers/Release/libdrivers.a(uart_irda_cir.o)

.debug_loc      0x00000000     0x62f7
 .debug_loc     0x00000000      0xcf1 Release/dcan_frame.o
 .debug_loc     0x00000cf1      0x319 Release/dcanTxRx.o
 .debug_loc     0x0000100a     0x104d ../../../../../..//binary/armv7a/gcc/am335x/drivers/Release/libdrivers.a(dcan.o)
 .debug_loc     0x00002057      0x31b ../../../../../..//binary/armv7a/gcc/utils/Release/libutils.a(consoleUtils.o)
 .debug_loc     0x00002372     0x18d9 ../../../../../..//binary/armv7a/gcc/utils/Release/libutils.a(uartStdio.o)
 .debug_loc     0x00003c4b      0x4e2 ../../../../../..//binary/armv7a/gcc/utils/Release/libutils.a(ascii.o)
 .debug_loc     0x0000412d       0x82 ../../../../../..//binary/armv7a/gcc/am335x/ok335xd/platform/Release/libplatform.a(dcan.o)
 .debug_loc     0x000041af       0xab ../../../../../..//binary/armv7a/gcc/am335x/ok335xd/platform/Release/libplatform.a(uartConsole.o)
 .debug_loc     0x0000425a      0x248 ../../../../../..//binary/armv7a/gcc/am335x/system_config/Release/libsystem_config.a(interrupt.o)
 .debug_loc     0x000044a2       0x34 ../../../../../..//binary/armv7a/gcc/am335x/system_config/Release/libsystem_config.a(startup.o)
 .debug_loc     0x000044d6     0x1e21 ../../../../../..//binary/armv7a/gcc/am335x/drivers/Release/libdrivers.a(uart_irda_cir.o)

.debug_aranges  0x00000000      0x8b8
 .debug_aranges
                0x00000000       0x80 Release/dcan_frame.o
 .debug_aranges
                0x00000080       0x40 Release/dcanTxRx.o
 .debug_aranges
                0x000000c0      0x200 ../../../../../..//binary/armv7a/gcc/am335x/drivers/Release/libdrivers.a(dcan.o)
 .debug_aranges
                0x000002c0       0x58 ../../../../../..//binary/armv7a/gcc/utils/Release/libutils.a(consoleUtils.o)
 .debug_aranges
                0x00000318       0x80 ../../../../../..//binary/armv7a/gcc/utils/Release/libutils.a(uartStdio.o)
 .debug_aranges
                0x00000398       0x48 ../../../../../..//binary/armv7a/gcc/utils/Release/libutils.a(ascii.o)
 .debug_aranges
                0x000003e0       0x30 ../../../../../..//binary/armv7a/gcc/am335x/ok335xd/platform/Release/libplatform.a(dcan.o)
 .debug_aranges
                0x00000410       0x30 ../../../../../..//binary/armv7a/gcc/am335x/ok335xd/platform/Release/libplatform.a(uartConsole.o)
 .debug_aranges
                0x00000440       0x28 ../../../../../..//binary/armv7a/gcc/am335x/ok335xd/platform/Release/libplatform.a(uart.o)
 .debug_aranges
                0x00000468       0x20 ../../../../../..//binary/armv7a/gcc/am335x/system_config/Release/libsystem_config.a(init.o)
 .debug_aranges
                0x00000488      0x110 ../../../../../..//binary/armv7a/gcc/am335x/system_config/Release/libsystem_config.a(interrupt.o)
 .debug_aranges
                0x00000598       0x20 ../../../../../..//binary/armv7a/gcc/am335x/system_config/Release/libsystem_config.a(startup.o)
 .debug_aranges
                0x000005b8       0x20 ../../../../../..//binary/armv7a/gcc/am335x/system_config/Release/libsystem_config.a(cp15.o)
 .debug_aranges
                0x000005d8       0x58 ../../../../../..//binary/armv7a/gcc/am335x/system_config/Release/libsystem_config.a(cpu.o)
 .debug_aranges
                0x00000630       0x20 ../../../../../..//binary/armv7a/gcc/am335x/system_config/Release/libsystem_config.a(exceptionhandler.o)
 .debug_aranges
                0x00000650      0x268 ../../../../../..//binary/armv7a/gcc/am335x/drivers/Release/libdrivers.a(uart_irda_cir.o)

.debug_ranges   0x00000000      0xe68
 .debug_ranges  0x00000000       0x70 Release/dcan_frame.o
 .debug_ranges  0x00000070       0x70 Release/dcanTxRx.o
 .debug_ranges  0x000000e0      0x1f0 ../../../../../..//binary/armv7a/gcc/am335x/drivers/Release/libdrivers.a(dcan.o)
 .debug_ranges  0x000002d0       0x48 ../../../../../..//binary/armv7a/gcc/utils/Release/libutils.a(consoleUtils.o)
 .debug_ranges  0x00000318      0x330 ../../../../../..//binary/armv7a/gcc/utils/Release/libutils.a(uartStdio.o)
 .debug_ranges  0x00000648       0x38 ../../../../../..//binary/armv7a/gcc/utils/Release/libutils.a(ascii.o)
 .debug_ranges  0x00000680       0x20 ../../../../../..//binary/armv7a/gcc/am335x/ok335xd/platform/Release/libplatform.a(dcan.o)
 .debug_ranges  0x000006a0       0x60 ../../../../../..//binary/armv7a/gcc/am335x/ok335xd/platform/Release/libplatform.a(uartConsole.o)
 .debug_ranges  0x00000700       0x18 ../../../../../..//binary/armv7a/gcc/am335x/ok335xd/platform/Release/libplatform.a(uart.o)
 .debug_ranges  0x00000718      0x130 ../../../../../..//binary/armv7a/gcc/am335x/system_config/Release/libsystem_config.a(interrupt.o)
 .debug_ranges  0x00000848       0x10 ../../../../../..//binary/armv7a/gcc/am335x/system_config/Release/libsystem_config.a(startup.o)
 .debug_ranges  0x00000858       0x48 ../../../../../..//binary/armv7a/gcc/am335x/system_config/Release/libsystem_config.a(cpu.o)
 .debug_ranges  0x000008a0      0x5c8 ../../../../../..//binary/armv7a/gcc/am335x/drivers/Release/libdrivers.a(uart_irda_cir.o)

.debug_line     0x00000000     0x286b
 .debug_line    0x00000000      0x263 Release/dcan_frame.o
 .debug_line    0x00000263      0x236 Release/dcanTxRx.o
 .debug_line    0x00000499      0x606 ../../../../../..//binary/armv7a/gcc/am335x/drivers/Release/libdrivers.a(dcan.o)
 .debug_line    0x00000a9f      0x1a0 ../../../../../..//binary/armv7a/gcc/utils/Release/libutils.a(consoleUtils.o)
 .debug_line    0x00000c3f      0x84d ../../../../../..//binary/armv7a/gcc/utils/Release/libutils.a(uartStdio.o)
 .debug_line    0x0000148c      0x16a ../../../../../..//binary/armv7a/gcc/utils/Release/libutils.a(ascii.o)
 .debug_line    0x000015f6       0xda ../../../../../..//binary/armv7a/gcc/am335x/ok335xd/platform/Release/libplatform.a(dcan.o)
 .debug_line    0x000016d0       0xaf ../../../../../..//binary/armv7a/gcc/am335x/ok335xd/platform/Release/libplatform.a(uartConsole.o)
 .debug_line    0x0000177f       0x83 ../../../../../..//binary/armv7a/gcc/am335x/ok335xd/platform/Release/libplatform.a(uart.o)
 .debug_line    0x00001802       0x93 ../../../../../..//binary/armv7a/gcc/am335x/system_config/Release/libsystem_config.a(init.o)
 .debug_line    0x00001895      0x2ae ../../../../../..//binary/armv7a/gcc/am335x/system_config/Release/libsystem_config.a(interrupt.o)
 .debug_line    0x00001b43       0x76 ../../../../../..//binary/armv7a/gcc/am335x/system_config/Release/libsystem_config.a(startup.o)
 .debug_line    0x00001bb9      0x18a ../../../../../..//binary/armv7a/gcc/am335x/system_config/Release/libsystem_config.a(cp15.o)
 .debug_line    0x00001d43       0xd6 ../../../../../..//binary/armv7a/gcc/am335x/system_config/Release/libsystem_config.a(cpu.o)
 .debug_line    0x00001e19       0xb9 ../../../../../..//binary/armv7a/gcc/am335x/system_config/Release/libsystem_config.a(exceptionhandler.o)
 .debug_line    0x00001ed2      0x999 ../../../../../..//binary/armv7a/gcc/am335x/drivers/Release/libdrivers.a(uart_irda_cir.o)

.debug_str      0x00000000     0x1d65
 .debug_str     0x00000000      0x319 Release/dcan_frame.o
                                0x36a (size before relaxing)
 .debug_str     0x00000319      0x159 Release/dcanTxRx.o
                                0x246 (size before relaxing)
 .debug_str     0x00000472      0x66f ../../../../../..//binary/armv7a/gcc/am335x/drivers/Release/libdrivers.a(dcan.o)
                                0x6fe (size before relaxing)
 .debug_str     0x00000ae1      0x1a5 ../../../../../..//binary/armv7a/gcc/utils/Release/libutils.a(consoleUtils.o)
                                0x285 (size before relaxing)
 .debug_str     0x00000c86      0x1a3 ../../../../../..//binary/armv7a/gcc/utils/Release/libutils.a(uartStdio.o)
                                0x2a2 (size before relaxing)
 .debug_str     0x00000e29       0xda ../../../../../..//binary/armv7a/gcc/utils/Release/libutils.a(ascii.o)
                                0x18c (size before relaxing)
 .debug_str     0x00000f03       0xc9 ../../../../../..//binary/armv7a/gcc/am335x/ok335xd/platform/Release/libplatform.a(dcan.o)
                                0x149 (size before relaxing)
 .debug_str     0x00000fcc       0xd1 ../../../../../..//binary/armv7a/gcc/am335x/ok335xd/platform/Release/libplatform.a(uartConsole.o)
                                0x193 (size before relaxing)
 .debug_str     0x0000109d       0x50 ../../../../../..//binary/armv7a/gcc/am335x/ok335xd/platform/Release/libplatform.a(uart.o)
                                0x119 (size before relaxing)
 .debug_str     0x000010ed      0x2f2 ../../../../../..//binary/armv7a/gcc/am335x/system_config/Release/libsystem_config.a(interrupt.o)
                                0x37b (size before relaxing)
 .debug_str     0x000013df       0x70 ../../../../../..//binary/armv7a/gcc/am335x/system_config/Release/libsystem_config.a(startup.o)
                                0x130 (size before relaxing)
 .debug_str     0x0000144f       0x9f ../../../../../..//binary/armv7a/gcc/am335x/system_config/Release/libsystem_config.a(cpu.o)
                                0x142 (size before relaxing)
 .debug_str     0x000014ee      0x877 ../../../../../..//binary/armv7a/gcc/am335x/drivers/Release/libdrivers.a(uart_irda_cir.o)
                                0x965 (size before relaxing)

.comment        0x00000000       0x70
 .comment       0x00000000       0x70 Release/dcan_frame.o
                                 0x71 (size before relaxing)
 .comment       0x00000000       0x71 Release/dcanTxRx.o
 .comment       0x00000000       0x71 ../../../../../..//binary/armv7a/gcc/am335x/drivers/Release/libdrivers.a(dcan.o)
 .comment       0x00000000       0x71 ../../../../../..//binary/armv7a/gcc/utils/Release/libutils.a(consoleUtils.o)
 .comment       0x00000000       0x71 ../../../../../..//binary/armv7a/gcc/utils/Release/libutils.a(uartStdio.o)
 .comment       0x00000000       0x71 ../../../../../..//binary/armv7a/gcc/utils/Release/libutils.a(ascii.o)
 .comment       0x00000000       0x71 ../../../../../..//binary/armv7a/gcc/am335x/ok335xd/platform/Release/libplatform.a(dcan.o)
 .comment       0x00000000       0x71 ../../../../../..//binary/armv7a/gcc/am335x/ok335xd/platform/Release/libplatform.a(uartConsole.o)
 .comment       0x00000000       0x71 ../../../../../..//binary/armv7a/gcc/am335x/ok335xd/platform/Release/libplatform.a(uart.o)
 .comment       0x00000000       0x71 ../../../../../..//binary/armv7a/gcc/am335x/system_config/Release/libsystem_config.a(interrupt.o)
 .comment       0x00000000       0x71 ../../../../../..//binary/armv7a/gcc/am335x/system_config/Release/libsystem_config.a(startup.o)
 .comment       0x00000000       0x71 ../../../../../..//binary/armv7a/gcc/am335x/system_config/Release/libsystem_config.a(cpu.o)
 .comment       0x00000000       0x71 ../../../../../..//binary/armv7a/gcc/am335x/drivers/Release/libdrivers.a(uart_irda_cir.o)

.ARM.attributes
                0x00000000       0x3b
 .ARM.attributes
                0x00000000       0x37 Release/dcan_frame.o
 .ARM.attributes
                0x00000037       0x37 Release/dcanTxRx.o
 .ARM.attributes
                0x0000006e       0x37 ../../../../../..//binary/armv7a/gcc/am335x/drivers/Release/libdrivers.a(dcan.o)
 .ARM.attributes
                0x000000a5       0x37 ../../../../../..//binary/armv7a/gcc/utils/Release/libutils.a(consoleUtils.o)
 .ARM.attributes
                0x000000dc       0x37 ../../../../../..//binary/armv7a/gcc/utils/Release/libutils.a(uartStdio.o)
 .ARM.attributes
                0x00000113       0x37 ../../../../../..//binary/armv7a/gcc/utils/Release/libutils.a(ascii.o)
 .ARM.attributes
                0x0000014a       0x37 ../../../../../..//binary/armv7a/gcc/am335x/ok335xd/platform/Release/libplatform.a(dcan.o)
 .ARM.attributes
                0x00000181       0x37 ../../../../../..//binary/armv7a/gcc/am335x/ok335xd/platform/Release/libplatform.a(uartConsole.o)
 .ARM.attributes
                0x000001b8       0x37 ../../../../../..//binary/armv7a/gcc/am335x/ok335xd/platform/Release/libplatform.a(uart.o)
 .ARM.attributes
                0x000001ef       0x23 ../../../../../..//binary/armv7a/gcc/am335x/system_config/Release/libsystem_config.a(init.o)
 .ARM.attributes
                0x00000212       0x3d ../../../../../..//binary/armv7a/gcc/am335x/system_config/Release/libsystem_config.a(interrupt.o)
 .ARM.attributes
                0x0000024f       0x3d ../../../../../..//binary/armv7a/gcc/am335x/system_config/Release/libsystem_config.a(startup.o)
 .ARM.attributes
                0x0000028c       0x23 ../../../../../..//binary/armv7a/gcc/am335x/system_config/Release/libsystem_config.a(cp15.o)
 .ARM.attributes
                0x000002af       0x3d ../../../../../..//binary/armv7a/gcc/am335x/system_config/Release/libsystem_config.a(cpu.o)
 .ARM.attributes
                0x000002ec       0x23 ../../../../../..//binary/armv7a/gcc/am335x/system_config/Release/libsystem_config.a(exceptionhandler.o)
 .ARM.attributes
                0x0000030f       0x18 /opt/gcc-arm-none-eabi-4_7-2013q1/lib/gcc/arm-none-eabi/4.7.3//libgcc.a(_udivsi3.o)
 .ARM.attributes
                0x00000327       0x18 /opt/gcc-arm-none-eabi-4_7-2013q1/lib/gcc/arm-none-eabi/4.7.3//libgcc.a(_divsi3.o)
 .ARM.attributes
                0x0000033f       0x18 /opt/gcc-arm-none-eabi-4_7-2013q1/lib/gcc/arm-none-eabi/4.7.3//libgcc.a(_dvmd_tls.o)
 .ARM.attributes
                0x00000357       0x37 ../../../../../..//binary/armv7a/gcc/am335x/drivers/Release/libdrivers.a(uart_irda_cir.o)

.debug_frame    0x00000000     0x1308
 .debug_frame   0x00000000      0x18c Release/dcan_frame.o
 .debug_frame   0x0000018c       0xb8 Release/dcanTxRx.o
 .debug_frame   0x00000244      0x400 ../../../../../..//binary/armv7a/gcc/am335x/drivers/Release/libdrivers.a(dcan.o)
 .debug_frame   0x00000644       0xec ../../../../../..//binary/armv7a/gcc/utils/Release/libutils.a(consoleUtils.o)
 .debug_frame   0x00000730      0x1cc ../../../../../..//binary/armv7a/gcc/utils/Release/libutils.a(uartStdio.o)
 .debug_frame   0x000008fc       0xcc ../../../../../..//binary/armv7a/gcc/utils/Release/libutils.a(ascii.o)
 .debug_frame   0x000009c8       0x4c ../../../../../..//binary/armv7a/gcc/am335x/ok335xd/platform/Release/libplatform.a(dcan.o)
 .debug_frame   0x00000a14       0x58 ../../../../../..//binary/armv7a/gcc/am335x/ok335xd/platform/Release/libplatform.a(uartConsole.o)
 .debug_frame   0x00000a6c       0x30 ../../../../../..//binary/armv7a/gcc/am335x/ok335xd/platform/Release/libplatform.a(uart.o)
 .debug_frame   0x00000a9c      0x238 ../../../../../..//binary/armv7a/gcc/am335x/system_config/Release/libsystem_config.a(interrupt.o)
 .debug_frame   0x00000cd4       0x28 ../../../../../..//binary/armv7a/gcc/am335x/system_config/Release/libsystem_config.a(startup.o)
 .debug_frame   0x00000cfc       0x90 ../../../../../..//binary/armv7a/gcc/am335x/system_config/Release/libsystem_config.a(cpu.o)
 .debug_frame   0x00000d8c       0x20 /opt/gcc-arm-none-eabi-4_7-2013q1/lib/gcc/arm-none-eabi/4.7.3//libgcc.a(_udivsi3.o)
 .debug_frame   0x00000dac       0x20 /opt/gcc-arm-none-eabi-4_7-2013q1/lib/gcc/arm-none-eabi/4.7.3//libgcc.a(_divsi3.o)
 .debug_frame   0x00000dcc      0x53c ../../../../../..//binary/armv7a/gcc/am335x/drivers/Release/libdrivers.a(uart_irda_cir.o)
